@ Provided under the GPL v2 license. See the included LICENSE.txt for details.

	.cpu arm7tdmi
	.fpu softvfp
	.eabi_attribute 20, 1
	.eabi_attribute 21, 1
	.eabi_attribute 23, 3
	.eabi_attribute 24, 1
	.eabi_attribute 25, 1
	.eabi_attribute 26, 1
	.eabi_attribute 30, 4
	.eabi_attribute 34, 0
	.eabi_attribute 18, 4
	.code	16
	.file	"main.c"
	.text
.Ltext0:
	.cfi_sections	.debug_frame
	.section	.text.my_memcpy,"ax",%progbits
	.align	1
	.global	my_memcpy
	.code	16
	.thumb_func
	.type	my_memcpy, %function
my_memcpy:
.LFB0:
	.file 1 "main.c"
	.loc 1 175 0
	.cfi_startproc
.LVL0:
	push	{r4, r5, r6, r7, lr}
.LCFI0:
	.cfi_def_cfa_offset 20
	.cfi_offset 4, -20
	.cfi_offset 5, -16
	.cfi_offset 6, -12
	.cfi_offset 7, -8
	.cfi_offset 14, -4
	.loc 1 177 0
	mov	r4, r2
.LVL1:
.L2:
	.loc 1 174 0 discriminator 1
	sub	r5, r4, r2
	.loc 1 177 0 discriminator 1
	cmp	r5, r3
	bge	.L5
.L3:
	.loc 1 178 0 discriminator 2
	ldr	r7, .L6
	.loc 1 174 0 discriminator 2
	sub	r6, r1, r2
	.loc 1 178 0 discriminator 2
	ldrb	r6, [r6, r4]
	ldr	r7, [r7]
	lsl	r5, r4, #24
	lsr	r5, r5, #24
	and	r6, r7
	strb	r6, [r0, r5]
	add	r4, r4, #1
	b	.L2
.L5:
	.loc 1 179 0
	@ sp needed for prologue
	pop	{r4, r5, r6, r7}
	pop	{r0}
	bx	r0
.L7:
	.align	2
.L6:
	.word	mask
	.cfi_endproc
.LFE0:
	.size	my_memcpy, .-my_memcpy
	.section	.text.my_memset,"ax",%progbits
	.align	1
	.global	my_memset
	.code	16
	.thumb_func
	.type	my_memset, %function
my_memset:
.LFB1:
	.loc 1 182 0
	.cfi_startproc
.LVL2:
	push	{r4, lr}
.LCFI1:
	.cfi_def_cfa_offset 8
	.cfi_offset 4, -8
	.cfi_offset 14, -4
	.loc 1 184 0
	mov	r3, r0
.LVL3:
.L9:
	.loc 1 181 0 discriminator 1
	sub	r4, r3, r0
	.loc 1 184 0 discriminator 1
	cmp	r4, r2
	bge	.L11
.L10:
	.loc 1 185 0 discriminator 2
	strb	r1, [r3]
	add	r3, r3, #1
	b	.L9
.L11:
	.loc 1 186 0
	@ sp needed for prologue
	pop	{r4}
	pop	{r0}
	bx	r0
	.cfi_endproc
.LFE1:
	.size	my_memset, .-my_memset
	.section	.text.reverse,"ax",%progbits
	.align	1
	.global	reverse
	.code	16
	.thumb_func
	.type	reverse, %function
reverse:
.LFB2:
	.loc 1 189 0
	.cfi_startproc
.LVL4:
	push	{r4, lr}
.LCFI2:
	.cfi_def_cfa_offset 8
	.cfi_offset 4, -8
	.cfi_offset 14, -4
.L13:
	.loc 1 191 0 discriminator 1
	cmp	r0, r1
	bge	.L15
.L14:
	.loc 1 193 0
	ldrb	r3, [r2, r0]
.LVL5:
	ldrb	r4, [r2, r1]
	strb	r4, [r2, r0]
	strb	r3, [r2, r1]
	.loc 1 194 0
	add	r0, r0, #1
.LVL6:
	.loc 1 195 0
	sub	r1, r1, #1
.LVL7:
	b	.L13
.LVL8:
.L15:
	.loc 1 197 0
	@ sp needed for prologue
	pop	{r4}
	pop	{r0}
	bx	r0
	.cfi_endproc
.LFE2:
	.size	reverse, .-reverse
	.section	.text.memscroll,"ax",%progbits
	.align	1
	.global	memscroll
	.code	16
	.thumb_func
	.type	memscroll, %function
memscroll:
.LFB3:
	.loc 1 200 0
	.cfi_startproc
.LVL9:
	push	{r3, r4, r5, lr}
.LCFI3:
	.cfi_def_cfa_offset 16
	.cfi_offset 3, -16
	.cfi_offset 4, -12
	.cfi_offset 5, -8
	.cfi_offset 14, -4
	.loc 1 200 0
	mov	r4, r0
	mov	r5, r1
	.loc 1 202 0
	mov	r2, r4
	sub	r1, r1, #1
.LVL10:
	mov	r0, #0
.LVL11:
	bl	reverse
.LVL12:
	.loc 1 203 0
	mov	r0, r5
	mov	r2, r4
	mov	r1, #255
	bl	reverse
.LVL13:
	.loc 1 204 0
	mov	r0, #0
	mov	r1, #255
	mov	r2, r4
	bl	reverse
.LVL14:
	.loc 1 205 0
	@ sp needed for prologue
.LVL15:
	pop	{r3, r4, r5}
	pop	{r0}
	bx	r0
	.cfi_endproc
.LFE3:
	.size	memscroll, .-memscroll
	.section	.text.get32bitdff,"ax",%progbits
	.align	1
	.global	get32bitdff
	.code	16
	.thumb_func
	.type	get32bitdff, %function
get32bitdff:
.LFB4:
	.loc 1 208 0
	.cfi_startproc
.LVL16:
	.loc 1 209 0
	ldr	r3, .L18
	ldr	r3, [r3]
	add	r3, r3, r0
	mov	r2, r3
	add	r2, r2, #46
	ldrb	r0, [r2]
.LVL17:
	add	r3, r3, #38
	ldrb	r3, [r3]
	lsl	r0, r0, #8
	add	r0, r0, r3
	.loc 1 210 0
	@ sp needed for prologue
	bx	lr
.L19:
	.align	2
.L18:
	.word	fetcheraddr
	.cfi_endproc
.LFE4:
	.size	get32bitdff, .-get32bitdff
	.section	.text.get32bitdf,"ax",%progbits
	.align	1
	.global	get32bitdf
	.code	16
	.thumb_func
	.type	get32bitdf, %function
get32bitdf:
.LFB5:
	.loc 1 213 0
	.cfi_startproc
.LVL18:
	.loc 1 214 0
	ldr	r3, .L21
	ldr	r3, [r3]
	add	r3, r3, r0
	ldrb	r0, [r3, #30]
.LVL19:
	ldrb	r3, [r3, #22]
	lsl	r0, r0, #8
	add	r0, r0, r3
	.loc 1 215 0
	@ sp needed for prologue
	bx	lr
.L22:
	.align	2
.L21:
	.word	fetcheraddr
	.cfi_endproc
.LFE5:
	.size	get32bitdf, .-get32bitdf
	.section	.text.shiftnumbers,"ax",%progbits
	.align	1
	.global	shiftnumbers
	.code	16
	.thumb_func
	.type	shiftnumbers, %function
shiftnumbers:
.LFB6:
	.loc 1 218 0
	.cfi_startproc
.LVL20:
	.loc 1 219 0
	ldr	r3, .L27
	ldrb	r2, [r3]
	sub	r2, r2, #1
.L24:
	.loc 1 219 0 is_stmt 0 discriminator 1
	cmp	r0, r2
	beq	.L26
.L25:
	.loc 1 221 0 is_stmt 1
	ldr	r3, .L27+4
	add	r0, r0, #1
.LVL21:
	ldrb	r1, [r0, r3]
	.loc 1 217 0
	add	r3, r3, r0
	sub	r3, r3, #1
	.loc 1 221 0
	strb	r1, [r3]
.LVL22:
	b	.L24
.L26:
	.loc 1 225 0
	@ sp needed for prologue
	bx	lr
.L28:
	.align	2
.L27:
	.word	maxsprites
	.word	.LANCHOR0
	.cfi_endproc
.LFE6:
	.size	shiftnumbers, .-shiftnumbers
	.section	.text.checkwrap,"ax",%progbits
	.align	1
	.global	checkwrap
	.code	16
	.thumb_func
	.type	checkwrap, %function
checkwrap:
.LFB7:
	.loc 1 228 0
	.cfi_startproc
.LVL23:
	.loc 1 229 0
	add	r3, r0, r1
	.loc 1 228 0
	push	{r4, lr}
.LCFI4:
	.cfi_def_cfa_offset 8
	.cfi_offset 4, -8
	.cfi_offset 14, -4
	.loc 1 229 0
	lsl	r3, r3, #24
	lsr	r3, r3, #24
	asr	r4, r3, #31
	lsr	r2, r1, #31
	cmp	r3, r1
	adc	r4, r4, r2
	neg	r3, r4
	and	r0, r3
.LVL24:
	.loc 1 231 0
	@ sp needed for prologue
	pop	{r4}
	pop	{r1}
	bx	r1
	.cfi_endproc
.LFE7:
	.size	checkwrap, .-checkwrap
	.section	.text.checkswap,"ax",%progbits
	.align	1
	.global	checkswap
	.code	16
	.thumb_func
	.type	checkswap, %function
checkswap:
.LFB8:
	.loc 1 234 0
	.cfi_startproc
.LVL25:
	push	{r4, r5, r6, r7, lr}
.LCFI5:
	.cfi_def_cfa_offset 20
	.cfi_offset 4, -20
	.cfi_offset 5, -16
	.cfi_offset 6, -12
	.cfi_offset 7, -8
	.cfi_offset 14, -4
	.loc 1 237 0
	ldr	r3, .L37
	ldr	r2, [r3, #12]
	add	r0, r2, r0
.LVL26:
	ldrb	r4, [r0, #21]
.LVL27:
	add	r0, r0, #33
.LVL28:
.LBB6:
.LBB7:
	.loc 1 229 0
	ldrb	r3, [r0]
	mov	r0, #255
.LVL29:
	add	r5, r4, r3
	and	r5, r0
	asr	r7, r5, #31
	lsr	r6, r3, #31
	cmp	r5, r3
	adc	r7, r7, r6
.LBE7:
.LBE6:
	.loc 1 238 0
	add	r1, r2, r1
.LVL30:
	ldrb	r2, [r1, #21]
.LVL31:
.LBB10:
.LBB8:
	.loc 1 229 0
	neg	r3, r7
.LBE8:
.LBE10:
	.loc 1 238 0
	add	r1, r1, #33
.LBB11:
.LBB9:
	.loc 1 229 0
	and	r4, r3
.LVL32:
.LBE9:
.LBE11:
.LBB12:
.LBB13:
	ldrb	r3, [r1]
	add	r1, r2, r3
.LVL33:
	and	r1, r0
	asr	r5, r1, #31
	lsr	r0, r3, #31
	cmp	r1, r3
	adc	r5, r5, r0
	neg	r1, r5
	and	r2, r1
.LBE13:
.LBE12:
	.loc 1 239 0
	sub	r2, r4, r2
.LVL34:
	.loc 1 240 0
	cmp	r2, #0
	ble	.L36
	.loc 1 242 0
	sub	r2, r2, #5
.LVL35:
	cmp	r2, #0
	ble	.L36
	.loc 1 244 0
	lsr	r0, r2, #31
	asr	r1, r3, #31
	cmp	r3, r2
	adc	r0, r0, r1
	b	.L34
.L36:
	.loc 1 254 0
	mov	r0, #1
.L34:
	.loc 1 262 0
	@ sp needed for prologue
	pop	{r4, r5, r6, r7}
	pop	{r1}
	bx	r1
.L38:
	.align	2
.L37:
	.word	.LANCHOR0
	.cfi_endproc
.LFE8:
	.size	checkswap, .-checkswap
	.section	.text.copynybble,"ax",%progbits
	.align	1
	.global	copynybble
	.code	16
	.thumb_func
	.type	copynybble, %function
copynybble:
.LFB9:
	.loc 1 265 0
	.cfi_startproc
.LVL36:
	.loc 1 269 0
	ldr	r3, .L41
	.loc 1 265 0
	push	{r4, r5, r6, lr}
.LCFI6:
	.cfi_def_cfa_offset 16
	.cfi_offset 4, -16
	.cfi_offset 5, -12
	.cfi_offset 6, -8
	.cfi_offset 14, -4
	.loc 1 269 0
	ldr	r4, .L41+4
	ldr	r3, [r3]
	ldr	r2, [r4]
	mov	r5, r3
	lsl	r6, r2, #3
	add	r5, r5, #56
	add	r2, r2, #1
	str	r2, [r4]
	ldrb	r5, [r5]
	.loc 1 270 0
	mov	r2, r3
	add	r2, r2, #55
	.loc 1 269 0
	add	r5, r6, r5
	.loc 1 270 0
	ldrb	r4, [r2]
	.loc 1 269 0
	mov	r6, r3
	.loc 1 270 0
	add	r3, r3, #54
	ldrb	r2, [r3]
	.loc 1 269 0
	add	r6, r6, #57
	.loc 1 270 0
	lsl	r4, r4, #8
	add	r3, r4, r2
	.loc 1 269 0
	ldrb	r6, [r6]
	.loc 1 270 0
	mov	r2, #15
	.loc 1 269 0
	ldr	r1, .L41+8
	.loc 1 270 0
	and	r0, r2
.LVL37:
	.loc 1 269 0
	lsl	r6, r6, #8
	.loc 1 270 0
	lsl	r0, r0, #3
	.loc 1 269 0
	add	r5, r5, r6
	.loc 1 270 0
	add	r0, r3, r0
	.loc 1 269 0
	ldr	r6, [r1, #16]
	.loc 1 270 0
	ldr	r3, [r1, #20]
	.loc 1 269 0
	add	r5, r6, r5
.LVL38:
	.loc 1 270 0
	add	r0, r3, r0
.LVL39:
	.loc 1 271 0
	mov	r3, #0
.LVL40:
.L40:
	.loc 1 264 0 discriminator 2
	sub	r2, r0, r3
	.loc 1 272 0 discriminator 2
	ldrb	r2, [r2, #7]
	strb	r2, [r5, r3]
	.loc 1 271 0 discriminator 2
	add	r3, r3, #1
.LVL41:
	cmp	r3, #8
	bne	.L40
	.loc 1 274 0
	@ sp needed for prologue
.LVL42:
.LVL43:
	pop	{r4, r5, r6}
	pop	{r0}
	bx	r0
.L42:
	.align	2
.L41:
	.word	fetcheraddr
	.word	temp5
	.word	.LANCHOR0
	.cfi_endproc
.LFE9:
	.size	copynybble, .-copynybble
	.section	.text.on_off_flip,"ax",%progbits
	.align	1
	.global	on_off_flip
	.code	16
	.thumb_func
	.type	on_off_flip, %function
on_off_flip:
.LFB10:
	.loc 1 277 0
	.cfi_startproc
.LVL44:
	.loc 1 278 0
	ldr	r3, .L49
	ldr	r3, [r3, #24]
	ldrb	r2, [r3]
	mov	r3, #3
	and	r3, r2
	cmp	r3, #1
	beq	.L46
	cmp	r3, #0
	beq	.L45
	cmp	r3, #2
	bne	.L43
	.loc 1 287 0
	ldr	r3, .L49+4
	ldr	r3, [r3]
	add	r0, r3, r0
.LVL45:
	ldrb	r3, [r0]
	eor	r1, r3
.LVL46:
	b	.L48
.LVL47:
.L45:
	.loc 1 281 0
	ldr	r3, .L49+4
	ldr	r3, [r3]
	add	r0, r3, r0
.LVL48:
	ldrb	r3, [r0]
	orr	r1, r3
.LVL49:
	b	.L48
.LVL50:
.L46:
.LBB16:
.LBB17:
	.loc 1 284 0
	ldr	r3, .L49+4
	ldr	r3, [r3]
	add	r0, r3, r0
.LVL51:
	ldrb	r3, [r0]
	bic	r3, r1
	strb	r3, [r0]
	b	.L43
.LVL52:
.L48:
.LBE17:
.LBE16:
	.loc 1 287 0
	strb	r1, [r0]
.L43:
	.loc 1 292 0
	@ sp needed for prologue
	bx	lr
.L50:
	.align	2
.L49:
	.word	.LANCHOR0
	.word	pfpixel
	.cfi_endproc
.LFE10:
	.size	on_off_flip, .-on_off_flip
	.section	.text.startup.main,"ax",%progbits
	.align	1
	.global	main
	.code	16
	.thumb_func
	.type	main, %function
main:
.LFB11:
	.loc 1 296 0
	.cfi_startproc
.LVL53:
	push	{r4, r5, r6, r7, lr}
.LCFI7:
	.cfi_def_cfa_offset 20
	.cfi_offset 4, -20
	.cfi_offset 5, -16
	.cfi_offset 6, -12
	.cfi_offset 7, -8
	.cfi_offset 14, -4
	sub	sp, sp, #68
.LCFI8:
	.cfi_def_cfa_offset 88
	.loc 1 305 0
	ldr	r1, .L107
	mov	r2, #32
	add	r0, sp, #32
	bl	memcpy
.LVL54:
	.loc 1 311 0
	ldr	r3, .L107+4
	ldr	r0, [r3, #28]
	ldr	r2, [r3, #20]
	ldrh	r1, [r0]
	add	r1, r2, r1
	ldr	r2, .L107+8
	.loc 1 314 0
	ldr	r6, [r3, #24]
	.loc 1 311 0
	str	r1, [r2]
	.loc 1 314 0
	ldrb	r4, [r6, #1]
	.loc 1 318 0
	ldrb	r2, [r6]
	mov	r1, #3
	.loc 1 314 0
	str	r4, [sp, #4]
.LVL55:
	.loc 1 315 0
	ldrb	r7, [r6, #2]
.LVL56:
	.loc 1 316 0
	ldrb	r5, [r6, #3]
.LVL57:
	.loc 1 318 0
	bic	r2, r1
	mov	r4, r3
	cmp	r2, #16
	beq	.L56
	bhi	.L61
	cmp	r2, #8
	beq	.L66
	cmp	r2, #12
	beq	.L55
	cmp	r2, #4
	beq	.LCB629
	b	.L52	@long jump
.LCB629:
	.loc 1 322 0
	lsr	r0, r5, #3
	ldr	r4, [r3, #16]
	bl	get32bitdff
.LVL58:
	ldr	r3, .L107+12
	add	r4, r4, r0
	str	r4, [r3]
.LVL59:
	.loc 1 323 0
	b	.L63
.LVL60:
.L61:
	.loc 1 318 0
	cmp	r2, #24
	bne	.LCB649
	b	.L58	@long jump
.LCB649:
	bhi	.L62
	cmp	r2, #20
	beq	.LCB653
	b	.L52	@long jump
.LCB653:
	.loc 1 354 0
	mov	r2, #0
	strb	r2, [r6, #3]
.LVL61:
	.loc 1 356 0
	ldr	r2, [r3, #12]
	.loc 1 364 0
	ldr	r3, [r3, #20]
	str	r3, [sp, #16]
	lsl	r3, r7, #1
	add	r3, r3, #57
	add	r3, r2, r3
	str	r3, [sp, #12]
	mov	r3, r7
	add	r3, r3, #28
	.loc 1 365 0
	ldr	r6, [sp, #4]
.LVL62:
	.loc 1 364 0
	lsl	r3, r3, #1
	add	r3, r2, r3
	str	r3, [sp, #20]
	.loc 1 365 0
	lsl	r3, r6, #1
	add	r3, r3, #57
	.loc 1 356 0
	add	r1, r2, r7
	.loc 1 365 0
	add	r3, r2, r3
	.loc 1 356 0
	ldrb	r4, [r1, #20]
	.loc 1 365 0
	str	r3, [sp, #24]
	.loc 1 356 0
	add	r1, r1, #1
	.loc 1 365 0
	mov	r3, r6
	.loc 1 356 0
	ldrb	r1, [r1, #31]
	.loc 1 365 0
	add	r3, r3, #28
	.loc 1 356 0
	mov	ip, r4
.LVL63:
	.loc 1 365 0
	lsl	r3, r3, #1
	add	r3, r2, r3
	.loc 1 356 0
	add	r1, r1, ip
	.loc 1 365 0
	str	r3, [sp, #28]
	.loc 1 356 0
	str	r1, [sp, #8]
	mov	r3, r4
	b	.L69
.LVL64:
.L62:
	.loc 1 318 0
	cmp	r2, #28
	beq	.L59
	cmp	r2, #32
	beq	.LCB701
	b	.L52	@long jump
.LCB701:
	.loc 1 389 0
	mov	r6, r7
.LVL65:
	b	.L72
.LVL66:
.L63:
	.loc 1 323 0 discriminator 1
	ldr	r4, [sp, #4]
	cmp	r7, r4
	ble	.LCB717
	b	.L101	@long jump
.LCB717:
.L64:
	.loc 1 325 0 discriminator 2
	add	r6, sp, #32
	mov	r0, r7
	ldrb	r1, [r6, r5]
	bl	on_off_flip
.LVL67:
	.loc 1 323 0 discriminator 2
	add	r7, r7, #1
.LVL68:
	b	.L63
.LVL69:
.L66:
	.loc 1 331 0 discriminator 1
	ldr	r6, [sp, #4]
	cmp	r5, r6
	ble	.LCB738
	b	.L101	@long jump
.LCB738:
.L67:
	.loc 1 333 0 discriminator 2
	asr	r0, r5, #3
	bl	get32bitdff
.LVL70:
	ldr	r6, [r4, #16]
	ldr	r3, .L107+12
	add	r6, r6, r0
	str	r6, [r3]
	.loc 1 334 0 discriminator 2
	add	r6, sp, #32
	ldrb	r1, [r6, r5]
	mov	r0, r7
	bl	on_off_flip
.LVL71:
	.loc 1 331 0 discriminator 2
	add	r5, r5, #1
.LVL72:
	b	.L66
.LVL73:
.L55:
	.loc 1 340 0
	lsr	r0, r5, #3
	ldr	r4, [r3, #16]
	bl	get32bitdff
.LVL74:
	ldr	r3, .L107+12
	add	r4, r4, r0
	str	r4, [r3]
	.loc 1 341 0
	add	r0, sp, #32
	ldrb	r1, [r0, r5]
	mov	r0, r7
	bl	on_off_flip
.LVL75:
	b	.L101
.LVL76:
.L56:
	.loc 1 346 0
	ldr	r0, [r3, #12]
	mov	r1, #0
	add	r0, r0, #58
	ldr	r2, .L107+16
	b	.L102
.LVL77:
.L71:
	.loc 1 358 0
	ldr	r5, [sp, #4]
	add	r4, r2, r5
	ldrb	r1, [r4, #20]
	cmp	r3, r1
	bge	.L103
.LVL78:
.L70:
	.loc 1 356 0
	add	r3, r3, #1
.LVL79:
.L69:
	.loc 1 356 0 is_stmt 0 discriminator 1
	ldr	r4, [sp, #8]
	cmp	r3, r4
	blt	.L71
	b	.L101
.L103:
	.loc 1 358 0 is_stmt 1 discriminator 1
	add	r0, r4, #1
	ldrb	r0, [r0, #31]
	add	r0, r1, r0
	cmp	r3, r0
	bge	.L70
	.loc 1 361 0
	add	r0, r2, r7
	ldrb	r0, [r0, #10]
	ldrb	r4, [r4, #10]
	sub	r0, r0, r4
	add	r0, r0, #7
.LVL80:
	.loc 1 362 0
	cmp	r0, #14
	bgt	.L70
	.loc 1 364 0
	ldr	r6, [sp, #12]
	ldrb	r5, [r6]
	ldr	r6, [sp, #20]
	ldrb	r4, [r6]
	lsl	r5, r5, #8
	add	r4, r5, r4
	ldr	r6, [sp, #16]
	mov	r5, ip
	add	r4, r4, r3
	sub	r4, r4, r5
	add	r4, r6, r4
	ldrb	r4, [r4]
	str	r4, [sp]
	.loc 1 365 0
	ldr	r4, [sp, #24]
	ldrb	r6, [r4]
	ldr	r4, [sp, #28]
	ldrb	r5, [r4]
	lsl	r6, r6, #8
	add	r5, r6, r5
	add	r5, r5, r3
	ldr	r6, [sp, #16]
	sub	r5, r5, r1
	add	r5, r6, r5
	ldrb	r1, [r5]
.LVL81:
	lsl	r1, r1, r0
.LVL82:
	mov	r0, r1
.LVL83:
	.loc 1 364 0
	ldr	r1, [sp]
	lsl	r4, r1, #7
	.loc 1 367 0
	tst	r4, r0
	beq	.L70
	.loc 1 369 0
	ldr	r3, .L107+4
.LVL84:
	ldr	r3, [r3, #24]
	mov	r2, #255
.LVL85:
	strb	r2, [r3, #3]
	b	.L101
.LVL86:
.L58:
	.loc 1 378 0
	ldr	r5, [sp, #4]
	lsr	r0, r5, #3
	ldr	r4, [r3, #16]
	bl	get32bitdff
.LVL87:
	ldr	r3, .L107+12
	add	r0, r4, r0
	str	r0, [r3]
	.loc 1 379 0
	ldrb	r3, [r0, r7]
	add	r0, sp, #32
	ldrb	r2, [r0, r5]
	and	r3, r2
	neg	r2, r3
	adc	r3, r3, r2
	strb	r3, [r6, #3]
	b	.L101
.LVL88:
.L59:
	.loc 1 384 0
	mov	r0, #0
	ldr	r4, [r3, #16]
	bl	get32bitdff
.LVL89:
	mov	r2, #128
	ldr	r1, [sp, #4]
	add	r0, r4, r0
	lsl	r2, r2, #3
.L102:
	bl	my_memset
.LVL90:
	b	.L101
.LVL91:
.L72:
	.loc 1 389 0 discriminator 1
	cmp	r6, r5
	blt	.LCB931
	b	.L101	@long jump
.LCB931:
.L73:
	.loc 1 390 0 discriminator 2
	mov	r0, r6
	bl	get32bitdff
.LVL92:
	ldr	r7, [r4, #16]
	ldr	r1, [sp, #4]
	add	r0, r7, r0
	bl	memscroll
.LVL93:
	.loc 1 389 0 discriminator 2
	add	r6, r6, #1
.LVL94:
	b	.L72
.LVL95:
.L52:
	.loc 1 399 0
	mov	r1, sp
	ldr	r2, .L107+20
	ldrb	r1, [r1, #4]
	strb	r1, [r2]
.LVL96:
	.loc 1 401 0
	mov	r3, #0
.LVL97:
.L74:
	.loc 1 401 0 is_stmt 0 discriminator 1
	ldr	r5, [sp, #4]
	cmp	r3, r5
	bge	.L104
.L75:
	.loc 1 403 0 is_stmt 1 discriminator 2
	mov	r2, r4
	add	r2, r2, #32
	ldrb	r2, [r3, r2]
	strb	r2, [r4, r3]
	.loc 1 401 0 discriminator 2
	add	r3, r3, #1
.LVL98:
	b	.L74
.L104:
	.loc 1 406 0
	sub	r5, r5, #1
	.loc 1 295 0
	ldr	r6, [sp, #4]
.LVL99:
	.loc 1 406 0
	str	r5, [sp, #16]
.LVL100:
	.loc 1 295 0
	mov	r5, r4
.LVL101:
	sub	r6, r6, #2
.LVL102:
	add	r5, r5, #32
	add	r5, r5, r6
.LVL103:
.L76:
	.loc 1 408 0 discriminator 1
	cmp	r6, #0
	blt	.L81
	.loc 1 410 0
	ldrb	r0, [r5, #1]
	ldrb	r1, [r5]
	.loc 1 295 0
	add	r7, r6, #1
	.loc 1 410 0
	bl	checkswap
.LVL104:
.L77:
	cmp	r0, #1
	beq	.L79
	cmp	r0, #2
	beq	.L80
	cmp	r0, #0
	beq	.L78
	b	.L77
.L79:
	.loc 1 413 0
	ldr	r0, [sp, #16]
	sub	r0, r0, #1
	str	r0, [sp, #16]
.LVL105:
	.loc 1 414 0
	mov	r0, r6
.LVL106:
	bl	shiftnumbers
.LVL107:
.L80:
	.loc 1 424 0
	add	r3, r4, #1
	add	r7, r3, r7
	ldrb	r3, [r7, #31]
.LVL108:
	.loc 1 425 0
	ldrb	r2, [r5]
	strb	r2, [r7, #31]
	.loc 1 426 0
	strb	r3, [r5]
.LVL109:
.L78:
	sub	r6, r6, #1
	sub	r5, r5, #1
	b	.L76
.LVL110:
.L81:
	.loc 1 408 0 discriminator 1
	mov	r3, #0
.L82:
.LVL111:
	.loc 1 429 0 discriminator 1
	ldr	r5, .L107+20
	ldrb	r2, [r5]
	cmp	r3, r2
	bge	.L105
.L83:
	.loc 1 430 0 discriminator 2
	ldrb	r2, [r4, r3]
	ldr	r1, [r4, #12]
	strb	r2, [r1, r3]
	.loc 1 429 0 discriminator 2
	add	r3, r3, #1
.LVL112:
	b	.L82
.L108:
	.align	2
.L107:
	.word	.LANCHOR1
	.word	.LANCHOR0
	.word	fetcheraddr
	.word	pfpixel
	.word	3614
	.word	maxsprites
.L105:
	.loc 1 431 0
	mov	r6, sp
.LVL113:
	mov	r0, #16
	ldrb	r0, [r0, r6]
	ldr	r6, [r4, #12]
	strb	r0, [r6, #9]
	.loc 1 434 0
	mov	r0, #3
	bl	get32bitdf
.LVL114:
	ldr	r5, [r4, #16]
	mov	r1, #0
	add	r0, r5, r0
	mov	r2, #192
	bl	my_memset
.LVL115:
	.loc 1 437 0
	mov	r0, #1
	bl	get32bitdf
.LVL116:
	ldr	r3, [r4, #12]
	ldr	r5, [r4, #16]
	add	r3, r3, #55
	ldrb	r1, [r3]
	add	r0, r5, r0
	mov	r2, #192
	bl	my_memset
.LVL117:
	.loc 1 439 0
	mov	r0, #0
	bl	get32bitdf
.LVL118:
	ldr	r3, [r4, #12]
	ldr	r5, [r4, #16]
	add	r3, r3, #54
	sub	r0, r0, #1
	ldrb	r1, [r3]
	add	r0, r5, r0
	mov	r2, #193
	bl	my_memset
.LVL119:
	.loc 1 443 0
	mov	r0, #0
	bl	get32bitdf
.LVL120:
	.loc 1 444 0
	ldr	r3, [r4, #12]
	ldrb	r1, [r3, #31]
	ldrb	r2, [r3, #30]
	lsl	r1, r1, #8
	add	r1, r1, r2
	ldr	r2, [r4, #20]
	.loc 1 443 0
	ldr	r5, [r4, #16]
	.loc 1 444 0
	add	r1, r2, r1
	.loc 1 443 0
	ldrb	r2, [r3, #20]
	.loc 1 445 0
	add	r3, r3, #1
	.loc 1 443 0
	add	r0, r5, r0
	ldrb	r3, [r3, #31]
	bl	my_memcpy
.LVL121:
	.loc 1 448 0
	mov	r0, #2
	bl	get32bitdf
.LVL122:
	.loc 1 449 0
	ldr	r3, [r4, #12]
	mov	r2, r3
	add	r2, r2, #57
	ldrb	r1, [r2]
	sub	r2, r2, #1
	ldrb	r2, [r2]
	lsl	r1, r1, #8
	.loc 1 448 0
	ldr	r5, [r4, #16]
	.loc 1 449 0
	add	r1, r1, r2
	ldr	r2, [r4, #20]
	.loc 1 450 0
	add	r3, r3, #1
	.loc 1 449 0
	add	r1, r2, r1
	.loc 1 448 0
	ldrb	r3, [r3, #31]
	mov	r2, #0
	add	r0, r5, r0
	bl	my_memcpy
.LVL123:
	.loc 1 452 0
	ldr	r2, .L109
	mov	r3, #0
	str	r3, [r2]
	.loc 1 453 0
	ldr	r2, .L109+4
	str	r3, [r2]
.L84:
	.loc 1 454 0 discriminator 1
	ldr	r3, .L109+4
	ldr	r6, .L109+8
	ldr	r3, [r3]
	ldr	r4, .L109+12
	cmp	r3, r6
	bne	.LCB1179
	b	.L106	@long jump
.LCB1179:
.L90:
	.loc 1 456 0
	ldr	r3, .L109
	ldr	r3, [r3]
	ldrb	r5, [r4, r3]
.LVL124:
	.loc 1 464 0
	ldr	r4, [r4, #12]
	.loc 1 463 0
	ldr	r2, .L109+16
	mov	r3, #255
	.loc 1 464 0
	add	r1, r4, r5
	.loc 1 463 0
	str	r3, [r2]
	.loc 1 464 0
	mov	r3, r1
	add	r3, r3, #42
	ldrb	r3, [r3]
	lsl	r0, r3, #24
	bpl	.L85
	.loc 1 466 0
	ldrb	r1, [r1, #11]
	cmp	r1, #152
	bls	.L85
	.loc 1 469 0
	mov	r0, #8
	mov	r6, #64
	and	r0, r3
	and	r3, r6
	lsl	r0, r0, #1
	asr	r3, r3, #3
	eor	r3, r0
	mov	r0, r1
	mov	r1, r3
	ldr	r3, .L109+20
	sub	r0, r0, #153
	add	r3, r3, #1
	orr	r1, r0
	add	r1, r3, r1
	ldrb	r3, [r1, #31]
	str	r3, [r2]
.L85:
	.loc 1 473 0
	mov	r0, #3
	bl	get32bitdf
.LVL125:
	.loc 1 474 0
	lsl	r3, r5, #1
	str	r3, [sp, #12]
	.loc 1 475 0
	mov	r1, r5
	.loc 1 474 0
	add	r3, r4, r3
	.loc 1 473 0
	ldr	r7, .L109+12
	.loc 1 475 0
	add	r1, r1, #21
	.loc 1 474 0
	add	r3, r3, #59
	.loc 1 475 0
	str	r1, [sp, #4]
	.loc 1 474 0
	ldrb	r1, [r3]
	mov	r3, r5
	.loc 1 473 0
	ldr	r6, [r7, #16]
	.loc 1 474 0
	add	r3, r3, #29
	.loc 1 476 0
	mov	r2, r5
	.loc 1 474 0
	lsl	r3, r3, #1
	ldrb	r3, [r3, r4]
	.loc 1 473 0
	add	r0, r6, r0
	.loc 1 476 0
	add	r2, r2, #33
	.loc 1 473 0
	ldr	r6, [sp, #4]
	.loc 1 476 0
	str	r2, [sp, #8]
	.loc 1 474 0
	lsl	r1, r1, #8
	.loc 1 473 0
	ldrb	r2, [r4, r6]
	.loc 1 474 0
	add	r1, r1, r3
	.loc 1 473 0
	ldr	r6, [sp, #8]
	.loc 1 474 0
	ldr	r3, [r7, #20]
	add	r1, r3, r1
	.loc 1 473 0
	ldrb	r3, [r4, r6]
	bl	my_memcpy
.LVL126:
	.loc 1 477 0
	ldr	r3, .L109+16
	mov	r4, #255
	.loc 1 479 0
	mov	r0, #1
	.loc 1 477 0
	str	r4, [r3]
	.loc 1 479 0
	bl	get32bitdf
.LVL127:
	ldr	r6, [r7, #16]
	.loc 1 480 0
	ldr	r3, [r7, #12]
	.loc 1 479 0
	add	r0, r6, r0
	.loc 1 480 0
	ldr	r6, [sp, #12]
	add	r2, r3, r6
	add	r2, r2, #77
	add	r5, r5, #38
.LVL128:
	ldrb	r1, [r2]
	lsl	r5, r5, #1
.LVL129:
	ldrb	r2, [r5, r3]
	lsl	r1, r1, #8
	.loc 1 479 0
	ldr	r5, [sp, #4]
	ldr	r6, [sp, #8]
	.loc 1 480 0
	add	r1, r1, r2
	ldr	r2, [r7, #20]
	add	r1, r2, r1
	.loc 1 479 0
	ldrb	r2, [r3, r5]
	ldrb	r3, [r3, r6]
	bl	my_memcpy
.LVL130:
	.loc 1 484 0
	ldr	r6, .L109+4
	ldr	r5, .L109+24
	ldr	r0, [r6]
	.loc 1 485 0
	ldr	r2, [sp, #4]
	.loc 1 484 0
	str	r0, [r5]
	.loc 1 485 0
	ldr	r3, [r7, #12]
	ldr	r0, [sp, #8]
	ldrb	r1, [r3, r2]
	ldrb	r2, [r3, r0]
	add	r2, r1, r2
	and	r4, r2
	str	r4, [r6]
	.loc 1 486 0
	ldr	r4, .L109
	ldr	r1, [r4]
	str	r1, [sp, #4]
	add	r2, r7, r1
	ldrb	r2, [r2, #1]
	str	r2, [sp, #8]
.LVL131:
	.loc 1 487 0
	ldr	r2, [sp, #16]
.LVL132:
	cmp	r1, r2
	beq	.L86
	.loc 1 487 0 is_stmt 0 discriminator 1
	ldr	r0, [sp, #8]
	add	r3, r3, r0
	ldrb	r3, [r3, #21]
	cmp	r3, #175
	bls	.L87
.L86:
	.loc 1 489 0 is_stmt 1
	ldr	r1, .L109+8
	.loc 1 490 0
	mov	r3, #0
	.loc 1 489 0
	str	r1, [r6]
	.loc 1 490 0
	str	r3, [r5]
.L87:
	.loc 1 496 0
	ldr	r2, [r7, #16]
	mov	r0, #4
	str	r2, [sp, #12]
	bl	get32bitdf
.LVL133:
	ldr	r3, [sp, #4]
	ldr	r2, [r6]
	add	r0, r0, r3
	ldr	r6, [sp, #4]
	ldr	r3, [r5]
	asr	r5, r6, #1
	sub	r3, r2, r3
	sub	r5, r3, r5
	ldr	r1, [sp, #12]
	asr	r5, r5, #1
	lsl	r5, r5, #24
	add	r0, r1, r0
	lsr	r5, r5, #24
	strb	r5, [r0]
	.loc 1 498 0
	ldr	r5, [sp, #8]
	ldr	r0, [r7, #12]
	add	r5, r5, #11
	add	r2, r0, r5
	ldrb	r3, [r2]
	cmp	r3, #159
	bls	.L88
	.loc 1 499 0
	mov	r1, #160
	cmp	r3, #208
	bls	.L89
	mov	r1, #96
.L89:
	.loc 1 499 0 is_stmt 0 discriminator 3
	sub	r3, r3, r1
	strb	r3, [r2]
.L88:
	.loc 1 500 0 is_stmt 1
	mov	r0, #5
	bl	get32bitdff
.LVL134:
	ldr	r1, [r4]
	ldr	r6, [r7, #16]
	add	r0, r0, r1
	ldr	r2, [r7, #12]
	add	r6, r6, r0
	ldr	r0, [sp, #8]
	add	r3, r2, r0
	add	r3, r3, #42
	ldrb	r3, [r3]
	.loc 1 501 0
	mov	r0, #7
	.loc 1 500 0
	strb	r3, [r6]
	.loc 1 501 0
	bl	get32bitdff
.LVL135:
	ldr	r1, [r4]
	ldr	r6, [r7, #16]
	add	r0, r0, r1
	ldr	r2, [r7, #12]
	add	r0, r6, r0
	ldr	r6, .L109+28
	ldrb	r3, [r2, r5]
	ldr	r1, [r6]
	add	r3, r1, r3
	add	r3, r3, #66
	ldrb	r3, [r3]
	strb	r3, [r0]
	.loc 1 503 0
	ldr	r2, [r7, #16]
	mov	r0, #5
	str	r2, [sp, #4]
	bl	get32bitdf
.LVL136:
	ldr	r3, [r4]
	ldr	r2, [r7, #12]
	ldr	r1, [sp, #4]
	add	r0, r0, r3
	add	r0, r1, r0
	ldrb	r3, [r2, r5]
	mov	r1, #224
	lsl	r1, r1, #5
	ldrb	r3, [r3, r1]
	ldr	r2, [r6]
	ldrb	r3, [r2, r3]
	strb	r3, [r0]
	.loc 1 505 0
	ldr	r3, [r7, #16]
	mov	r0, #6
	str	r3, [sp, #4]
	bl	get32bitdf
.LVL137:
	ldr	r3, [r7, #12]
	ldr	r1, [r4]
	ldrb	r3, [r3, r5]
	ldr	r2, [sp, #4]
	mov	r5, #224
	add	r0, r0, r1
	lsl	r5, r5, #5
	ldrb	r3, [r3, r5]
	add	r0, r2, r0
	ldr	r2, [r6]
	add	r3, r2, r3
	ldrb	r3, [r3, #11]
	strb	r3, [r0]
	.loc 1 506 0
	ldr	r3, [r4]
	add	r3, r3, #1
	str	r3, [r4]
	b	.L84
.LVL138:
.L106:
	.loc 1 508 0
	ldr	r3, .L109+24
	mov	r2, #1
	str	r2, [r3]
	.loc 1 509 0
	ldr	r3, [r4, #12]
	add	r3, r3, #51
	ldrb	r0, [r3]
	bl	copynybble
.LVL139:
	.loc 1 510 0
	ldr	r3, [r4, #12]
	add	r3, r3, #51
	ldrb	r0, [r3]
	lsr	r0, r0, #4
	bl	copynybble
.LVL140:
	.loc 1 511 0
	ldr	r3, [r4, #12]
	add	r3, r3, #52
	ldrb	r0, [r3]
	bl	copynybble
.LVL141:
	.loc 1 512 0
	ldr	r3, [r4, #12]
	add	r3, r3, #52
	ldrb	r0, [r3]
	lsr	r0, r0, #4
	bl	copynybble
.LVL142:
	.loc 1 513 0
	ldr	r3, [r4, #12]
	add	r3, r3, #53
	ldrb	r0, [r3]
	bl	copynybble
.LVL143:
	.loc 1 514 0
	ldr	r3, [r4, #12]
	add	r3, r3, #53
	ldrb	r0, [r3]
	lsr	r0, r0, #4
	bl	copynybble
.LVL144:
	.loc 1 516 0
	mov	r0, #0
	b	.L51
.LVL145:
.L101:
.L51:
	.loc 1 517 0
	add	sp, sp, #68
	@ sp needed for prologue
	pop	{r4, r5, r6, r7}
	pop	{r1}
	bx	r1
.L110:
	.align	2
.L109:
	.word	count
	.word	temp4
	.word	511
	.word	.LANCHOR0
	.word	mask
	.word	.LANCHOR1
	.word	temp5
	.word	fetcheraddr
	.cfi_endproc
.LFE11:
	.size	main, .-main
	.comm	maxsprites,1,1
	.global	myGfxIndex
	.global	spritesort
	.global	maskdata
	.comm	mask,4,4
	.comm	temp5,4,4
	.comm	temp4,4,4
	.comm	count,4,4
	.comm	pfpixel,4,4
	.comm	fetcheraddr,4,4
	.global	RIOT
	.global	fetcher_address_table
	.global	C_function
	.global	queue_int
	.global	flashdata
	.global	queue
	.section	.rodata
	.set	.LANCHOR1,. + 0
.LC0:
	.byte	-128
	.byte	64
	.byte	32
	.byte	16
	.byte	8
	.byte	4
	.byte	2
	.byte	1
	.byte	1
	.byte	2
	.byte	4
	.byte	8
	.byte	16
	.byte	32
	.byte	64
	.byte	-128
	.byte	-128
	.byte	64
	.byte	32
	.byte	16
	.byte	8
	.byte	4
	.byte	2
	.byte	1
	.byte	1
	.byte	2
	.byte	4
	.byte	8
	.byte	16
	.byte	32
	.byte	64
	.byte	-128
	.type	maskdata, %object
	.size	maskdata, 32
maskdata:
	.byte	0
	.byte	1
	.byte	3
	.byte	7
	.byte	15
	.byte	31
	.byte	63
	.byte	127
	.byte	-2
	.byte	-4
	.byte	-8
	.byte	-16
	.byte	-32
	.byte	-64
	.byte	-128
	.byte	0
	.byte	0
	.byte	-128
	.byte	-64
	.byte	-32
	.byte	-16
	.byte	-8
	.byte	-4
	.byte	-2
	.byte	127
	.byte	63
	.byte	31
	.byte	15
	.byte	7
	.byte	3
	.byte	1
	.byte	0
	.data
	.align	2
	.set	.LANCHOR0,. + 0
	.type	myGfxIndex, %object
	.size	myGfxIndex, 10
myGfxIndex:
	.byte	0
	.byte	1
	.byte	2
	.byte	3
	.byte	4
	.byte	5
	.byte	6
	.byte	7
	.byte	8
	.byte	0
	.space	2
	.type	RIOT, %object
	.size	RIOT, 4
RIOT:
	.word	1073745320
	.type	queue, %object
	.size	queue, 4
queue:
	.word	1073744896
	.type	flashdata, %object
	.size	flashdata, 4
flashdata:
	.word	3072
	.type	C_function, %object
	.size	C_function, 4
C_function:
	.word	1073745316
	.type	fetcher_address_table, %object
	.size	fetcher_address_table, 4
fetcher_address_table:
	.word	28064
	.type	spritesort, %object
	.size	spritesort, 10
spritesort:
	.byte	0
	.byte	1
	.byte	2
	.byte	3
	.byte	4
	.byte	5
	.byte	6
	.byte	7
	.byte	8
	.byte	0
	.space	2
	.type	queue_int, %object
	.size	queue_int, 4
queue_int:
	.word	1073744896
	.text
.Letext0: